target datalayout = "e-m:e-p270:32:32-p271:32:32-p272:64:64-i64:64-i128:128-f80:128-n8:16:32:64-S128"
target triple = "x86_64-pc-linux-gnu"

%"class.icu_77::UnicodeString" = type { %"class.icu_77::Replaceable", %"union.icu_77::UnicodeString::StackBufferOrFields" }
%"class.icu_77::Replaceable" = type { %"class.icu_77::UObject" }
%"class.icu_77::UObject" = type { ptr }
%"union.icu_77::UnicodeString::StackBufferOrFields" = type { %struct.anon.0, [32 x i8] }
%struct.anon.0 = type { i16, i32, i32, ptr }
%"class.icu_77::NormalizationTransliterator" = type { %"class.icu_77::Transliterator.base", ptr }
%"class.icu_77::Transliterator.base" = type <{ %"class.icu_77::UObject", %"class.icu_77::UnicodeString", ptr, i32 }>

; Function Attrs: mustprogress uwtable
define void @_ZN6icu_7727NormalizationTransliteratorC2ERKS0_(ptr noundef nonnull align 8 dereferenceable(96) %0, ptr noundef nonnull align 8 dereferenceable(96) %1) unnamed_addr #1 align 2 {
  %3 = alloca ptr, align 8
  %4 = alloca ptr, align 8
  store ptr %0, ptr %3, align 8, !tbaa !3
  store ptr %1, ptr %4, align 8, !tbaa !3
  %5 = load ptr, ptr %3, align 8
  %6 = load ptr, ptr %4, align 8, !tbaa !3
  call void @_ZN6icu_7714TransliteratorC2ERKS0_(ptr noundef nonnull align 8 dereferenceable(84) %5, ptr noundef nonnull align 8 dereferenceable(84) %6)
  store ptr getelementptr inbounds inrange(-16, 136) ({ [19 x ptr] }, ptr @_ZTVN6icu_7727NormalizationTransliteratorE, i32 0, i32 0, i32 2), ptr %5, align 8, !tbaa !26
  %7 = getelementptr inbounds nuw %"class.icu_77::NormalizationTransliterator", ptr %5, i32 0, i32 1
  %8 = load ptr, ptr %4, align 8, !tbaa !3
  %9 = getelementptr inbounds nuw %"class.icu_77::NormalizationTransliterator", ptr %8, i32 0, i32 1
  %10 = load ptr, ptr %9, align 8, !tbaa !28
  store ptr %10, ptr %7, align 8, !tbaa !23
  ret void
}